target datalayout = "e-m:e-p270:32:32-p271:32:32-p272:64:64-i64:64-i128:128-f80:128-n8:16:32:64-S128"
target triple = "x86_64-pc-linux-gnu"

%struct._zval_struct = type { %union._zend_value, %union.anon.9, %union.anon.12 }
%union._zend_value = type { i64 }
%union.anon.9 = type { i32 }
%union.anon.12 = type { i32 }
%struct._zend_array = type { %struct._zend_refcounted_h, %union.anon.1, i32, %union.anon.2, i32, i32, i32, i32, i64, ptr }
%struct._zend_refcounted_h = type { i32, %union.anon.0 }
%union.anon.0 = type { i32 }
%union.anon.1 = type { i32 }
%union.anon.2 = type { ptr }
%struct._zend_class_entry = type { i8, ptr, %union.anon, i32, i32, i32, i32, ptr, ptr, ptr, %struct._zend_array, %struct._zend_array, %struct._zend_array, ptr, ptr, ptr, ptr, ptr, ptr, ptr, ptr, ptr, ptr, ptr, ptr, ptr, ptr, ptr, ptr, ptr, ptr, ptr, %union.anon.3, ptr, ptr, ptr, ptr, i32, i32, i32, i32, %union.anon.4, ptr, ptr, ptr, ptr, i32, ptr, ptr, %union.anon.5 }
%union.anon = type { ptr }
%union.anon.3 = type { ptr }
%union.anon.4 = type { ptr }
%union.anon.5 = type { %struct.anon.6 }
%struct.anon.6 = type { ptr, i32, i32 }
%struct.reflection_object = type { %struct._zval_struct, ptr, ptr, i32, %struct._zend_object }
%struct._zend_object = type { %struct._zend_refcounted_h, i32, i32, ptr, ptr, ptr, [1 x %struct._zval_struct] }
%struct._zend_string = type { %struct._zend_refcounted_h, i64, i64, [1 x i8] }
%struct._zend_module_entry = type { i16, i32, i8, i8, ptr, ptr, ptr, ptr, ptr, ptr, ptr, ptr, ptr, ptr, i64, ptr, ptr, ptr, ptr, i32, i8, ptr, i32, ptr }
%struct.anon.7 = type { ptr, ptr }

@reflection_enum_ptr = dso_local global ptr null, align 8
@reflection_class_ptr = dso_local global ptr null, align 8

; Function Attrs: alwaysinline nounwind uwtable
define internal i32 @zend_gc_addref(ptr noundef %0) #4 {
  %2 = alloca ptr, align 8
  store ptr %0, ptr %2, align 8, !tbaa !44
  br label %3

3:                                                ; preds = %1
  br label %4

4:                                                ; preds = %3
  %5 = load ptr, ptr %2, align 8, !tbaa !44
  %6 = getelementptr inbounds nuw %struct._zend_refcounted_h, ptr %5, i32 0, i32 0
  %7 = load i32, ptr %6, align 4, !tbaa !46
  %8 = add i32 %7, 1
  store i32 %8, ptr %6, align 4, !tbaa !46
  ret i32 %8
}

; Function Attrs: alwaysinline nounwind uwtable
define internal i32 @zval_gc_flags(i32 noundef %0) #4 {
  %2 = alloca i32, align 4
  store i32 %0, ptr %2, align 4, !tbaa !43
  %3 = load i32, ptr %2, align 4, !tbaa !43
  %4 = lshr i32 %3, 0
  %5 = and i32 %4, 1008
  ret i32 %5
}

; Function Attrs: alwaysinline nounwind uwtable
define internal ptr @reflection_prop_name(ptr noundef %0) #4 {
  %2 = alloca ptr, align 8
  store ptr %0, ptr %2, align 8, !tbaa !9
  %3 = load ptr, ptr %2, align 8, !tbaa !9
  %4 = getelementptr inbounds nuw %struct._zval_struct, ptr %3, i32 0, i32 0
  %5 = load ptr, ptr %4, align 8, !tbaa !29
  %6 = getelementptr inbounds nuw %struct._zend_object, ptr %5, i32 0, i32 3
  %7 = load ptr, ptr %6, align 8, !tbaa !41
  %8 = getelementptr inbounds nuw %struct._zend_class_entry, ptr %7, i32 0, i32 5
  %9 = load i32, ptr %8, align 8, !tbaa !42
  %10 = icmp sge i32 %9, 1
  call void @llvm.assume(i1 %10)
  %11 = load ptr, ptr %2, align 8, !tbaa !9
  %12 = getelementptr inbounds nuw %struct._zval_struct, ptr %11, i32 0, i32 0
  %13 = load ptr, ptr %12, align 8, !tbaa !29
  %14 = getelementptr inbounds nuw %struct._zend_object, ptr %13, i32 0, i32 6
  %15 = getelementptr inbounds [1 x %struct._zval_struct], ptr %14, i64 0, i64 0
  ret ptr %15
}

; Function Attrs: inlinehint nounwind uwtable
define internal ptr @reflection_object_from_obj(ptr noundef %0) #3 {
  %2 = alloca ptr, align 8
  store ptr %0, ptr %2, align 8, !tbaa !39
  %3 = load ptr, ptr %2, align 8, !tbaa !39
  %4 = getelementptr inbounds i8, ptr %3, i64 -40
  ret ptr %4
}

; Function Attrs: alwaysinline nounwind uwtable
define internal ptr @zend_string_copy(ptr noundef %0) #4 {
  %2 = alloca ptr, align 8
  store ptr %0, ptr %2, align 8, !tbaa !38
  %3 = load ptr, ptr %2, align 8, !tbaa !38
  %4 = getelementptr inbounds nuw %struct._zend_string, ptr %3, i32 0, i32 0
  %5 = getelementptr inbounds nuw %struct._zend_refcounted_h, ptr %4, i32 0, i32 1
  %6 = load i32, ptr %5, align 4, !tbaa !29
  %7 = call i32 @zval_gc_flags(i32 noundef %6)
  %8 = and i32 %7, 64
  %9 = icmp ne i32 %8, 0
  br i1 %9, label %14, label %10

10:                                               ; preds = %1
  %11 = load ptr, ptr %2, align 8, !tbaa !38
  %12 = getelementptr inbounds nuw %struct._zend_string, ptr %11, i32 0, i32 0
  %13 = call i32 @zend_gc_addref(ptr noundef %12)
  br label %14

14:                                               ; preds = %10, %1
  %15 = load ptr, ptr %2, align 8, !tbaa !38
  ret ptr %15
}

; Function Attrs: nounwind uwtable
define dso_local void @zend_reflection_class_factory(ptr noundef %0, ptr noundef %1) #0 {
  %3 = alloca ptr, align 8
  %4 = alloca ptr, align 8
  %5 = alloca ptr, align 8
  %6 = alloca ptr, align 8
  %7 = alloca ptr, align 8
  %8 = alloca ptr, align 8
  store ptr %0, ptr %3, align 8, !tbaa !4
  store ptr %1, ptr %4, align 8, !tbaa !9
  call void @llvm.lifetime.start.p0(i64 8, ptr %5) #14
  call void @llvm.lifetime.start.p0(i64 8, ptr %6) #14
  %9 = load ptr, ptr %3, align 8, !tbaa !4
  %10 = getelementptr inbounds nuw %struct._zend_class_entry, ptr %9, i32 0, i32 4
  %11 = load i32, ptr %10, align 4, !tbaa !11
  %12 = and i32 %11, 268435456
  %13 = icmp ne i32 %12, 0
  br i1 %13, label %14, label %16

14:                                               ; preds = %2
  %15 = load ptr, ptr @reflection_enum_ptr, align 8, !tbaa !4
  br label %18

16:                                               ; preds = %2
  %17 = load ptr, ptr @reflection_class_ptr, align 8, !tbaa !4
  br label %18

18:                                               ; preds = %16, %14
  %19 = phi ptr [ %15, %14 ], [ %17, %16 ]
  store ptr %19, ptr %6, align 8, !tbaa !4
  %20 = load ptr, ptr %4, align 8, !tbaa !9
  %21 = load ptr, ptr %6, align 8, !tbaa !4
  %22 = call i32 @object_init_ex(ptr noundef %20, ptr noundef %21)
  %23 = load ptr, ptr %4, align 8, !tbaa !9
  %24 = getelementptr inbounds nuw %struct._zval_struct, ptr %23, i32 0, i32 0
  %25 = load ptr, ptr %24, align 8, !tbaa !29
  %26 = call ptr @reflection_object_from_obj(ptr noundef %25)
  store ptr %26, ptr %5, align 8, !tbaa !30
  %27 = load ptr, ptr %3, align 8, !tbaa !4
  %28 = load ptr, ptr %5, align 8, !tbaa !30
  %29 = getelementptr inbounds nuw %struct.reflection_object, ptr %28, i32 0, i32 1
  store ptr %27, ptr %29, align 8, !tbaa !31
  %30 = load ptr, ptr %5, align 8, !tbaa !30
  %31 = getelementptr inbounds nuw %struct.reflection_object, ptr %30, i32 0, i32 3
  store i32 0, ptr %31, align 8, !tbaa !35
  %32 = load ptr, ptr %3, align 8, !tbaa !4
  %33 = load ptr, ptr %5, align 8, !tbaa !30
  %34 = getelementptr inbounds nuw %struct.reflection_object, ptr %33, i32 0, i32 2
  store ptr %32, ptr %34, align 8, !tbaa !36
  br label %35

35:                                               ; preds = %18
  call void @llvm.lifetime.start.p0(i64 8, ptr %7) #14
  %36 = load ptr, ptr %4, align 8, !tbaa !9
  %37 = call ptr @reflection_prop_name(ptr noundef %36)
  store ptr %37, ptr %7, align 8, !tbaa !9
  call void @llvm.lifetime.start.p0(i64 8, ptr %8) #14
  %38 = load ptr, ptr %3, align 8, !tbaa !4
  %39 = getelementptr inbounds nuw %struct._zend_class_entry, ptr %38, i32 0, i32 1
  %40 = load ptr, ptr %39, align 8, !tbaa !37
  store ptr %40, ptr %8, align 8, !tbaa !38
  %41 = load ptr, ptr %8, align 8, !tbaa !38
  %42 = load ptr, ptr %7, align 8, !tbaa !9
  %43 = getelementptr inbounds nuw %struct._zval_struct, ptr %42, i32 0, i32 0
  store ptr %41, ptr %43, align 8, !tbaa !29
  %44 = load ptr, ptr %8, align 8, !tbaa !38
  %45 = getelementptr inbounds nuw %struct._zend_string, ptr %44, i32 0, i32 0
  %46 = getelementptr inbounds nuw %struct._zend_refcounted_h, ptr %45, i32 0, i32 1
  %47 = load i32, ptr %46, align 4, !tbaa !29
  %48 = call i32 @zval_gc_flags(i32 noundef %47)
  %49 = and i32 %48, 64
  %50 = icmp ne i32 %49, 0
  br i1 %50, label %51, label %54

51:                                               ; preds = %35
  %52 = load ptr, ptr %7, align 8, !tbaa !9
  %53 = getelementptr inbounds nuw %struct._zval_struct, ptr %52, i32 0, i32 1
  store i32 6, ptr %53, align 8, !tbaa !29
  br label %60

54:                                               ; preds = %35
  %55 = load ptr, ptr %8, align 8, !tbaa !38
  %56 = getelementptr inbounds nuw %struct._zend_string, ptr %55, i32 0, i32 0
  %57 = call i32 @zend_gc_addref(ptr noundef %56)
  %58 = load ptr, ptr %7, align 8, !tbaa !9
  %59 = getelementptr inbounds nuw %struct._zval_struct, ptr %58, i32 0, i32 1
  store i32 262, ptr %59, align 8, !tbaa !29
  br label %60

60:                                               ; preds = %54, %51
  call void @llvm.lifetime.end.p0(i64 8, ptr %8) #14
  call void @llvm.lifetime.end.p0(i64 8, ptr %7) #14
  br label %61

61:                                               ; preds = %60
  br label %62

62:                                               ; preds = %61
  call void @llvm.lifetime.end.p0(i64 8, ptr %6) #14
  call void @llvm.lifetime.end.p0(i64 8, ptr %5) #14
  ret void
}

; Function Attrs: nounwind uwtable
define internal void @add_extension_class(ptr noundef %0, ptr noundef %1, ptr noundef %2, ptr noundef %3, i1 noundef zeroext %4) #0 {
  %6 = alloca ptr, align 8
  %7 = alloca ptr, align 8
  %8 = alloca ptr, align 8
  %9 = alloca ptr, align 8
  %10 = alloca i8, align 1
  %11 = alloca ptr, align 8
  %12 = alloca %struct._zval_struct, align 8
  store ptr %0, ptr %6, align 8, !tbaa !4
  store ptr %1, ptr %7, align 8, !tbaa !38
  store ptr %2, ptr %8, align 8, !tbaa !9
  store ptr %3, ptr %9, align 8, !tbaa !161
  %13 = zext i1 %4 to i8
  store i8 %13, ptr %10, align 1, !tbaa !78
  %14 = load ptr, ptr %6, align 8, !tbaa !4
  %15 = getelementptr inbounds nuw %struct._zend_class_entry, ptr %14, i32 0, i32 0
  %16 = load i8, ptr %15, align 8, !tbaa !210
  %17 = sext i8 %16 to i32
  %18 = icmp eq i32 %17, 1
  br i1 %18, label %19, label %88

19:                                               ; preds = %5
  %20 = load ptr, ptr %6, align 8, !tbaa !4
  %21 = getelementptr inbounds nuw %struct._zend_class_entry, ptr %20, i32 0, i32 49
  %22 = getelementptr inbounds nuw %struct.anon.7, ptr %21, i32 0, i32 1
  %23 = load ptr, ptr %22, align 8, !tbaa !29
  %24 = icmp ne ptr %23, null
  br i1 %24, label %25, label %88

25:                                               ; preds = %19
  %26 = load ptr, ptr %6, align 8, !tbaa !4
  %27 = getelementptr inbounds nuw %struct._zend_class_entry, ptr %26, i32 0, i32 49
  %28 = getelementptr inbounds nuw %struct.anon.7, ptr %27, i32 0, i32 1
  %29 = load ptr, ptr %28, align 8, !tbaa !29
  %30 = getelementptr inbounds nuw %struct._zend_module_entry, ptr %29, i32 0, i32 6
  %31 = load ptr, ptr %30, align 8, !tbaa !90
  %32 = load ptr, ptr %9, align 8, !tbaa !161
  %33 = getelementptr inbounds nuw %struct._zend_module_entry, ptr %32, i32 0, i32 6
  %34 = load ptr, ptr %33, align 8, !tbaa !90
  %35 = call i32 @strcasecmp(ptr noundef %31, ptr noundef %34) #16
  %36 = icmp ne i32 %35, 0
  br i1 %36, label %88, label %37

37:                                               ; preds = %25
  call void @llvm.lifetime.start.p0(i64 8, ptr %11) #14
  %38 = load ptr, ptr %6, align 8, !tbaa !4
  %39 = getelementptr inbounds nuw %struct._zend_class_entry, ptr %38, i32 0, i32 1
  %40 = load ptr, ptr %39, align 8, !tbaa !37
  %41 = getelementptr inbounds nuw %struct._zend_string, ptr %40, i32 0, i32 2
  %42 = load i64, ptr %41, align 8, !tbaa !82
  %43 = load ptr, ptr %7, align 8, !tbaa !38
  %44 = getelementptr inbounds nuw %struct._zend_string, ptr %43, i32 0, i32 2
  %45 = load i64, ptr %44, align 8, !tbaa !82
  %46 = icmp eq i64 %42, %45
  br i1 %46, label %47, label %66

47:                                               ; preds = %37
  %48 = load ptr, ptr %6, align 8, !tbaa !4
  %49 = getelementptr inbounds nuw %struct._zend_class_entry, ptr %48, i32 0, i32 1
  %50 = load ptr, ptr %49, align 8, !tbaa !37
  %51 = getelementptr inbounds nuw %struct._zend_string, ptr %50, i32 0, i32 3
  %52 = getelementptr inbounds [1 x i8], ptr %51, i64 0, i64 0
  %53 = load ptr, ptr %6, align 8, !tbaa !4
  %54 = getelementptr inbounds nuw %struct._zend_class_entry, ptr %53, i32 0, i32 1
  %55 = load ptr, ptr %54, align 8, !tbaa !37
  %56 = getelementptr inbounds nuw %struct._zend_string, ptr %55, i32 0, i32 2
  %57 = load i64, ptr %56, align 8, !tbaa !82
  %58 = load ptr, ptr %7, align 8, !tbaa !38
  %59 = getelementptr inbounds nuw %struct._zend_string, ptr %58, i32 0, i32 3
  %60 = getelementptr inbounds [1 x i8], ptr %59, i64 0, i64 0
  %61 = load ptr, ptr %7, align 8, !tbaa !38
  %62 = getelementptr inbounds nuw %struct._zend_string, ptr %61, i32 0, i32 2
  %63 = load i64, ptr %62, align 8, !tbaa !82
  %64 = call i32 @zend_binary_strcasecmp(ptr noundef %52, i64 noundef %57, ptr noundef %60, i64 noundef %63)
  %65 = icmp ne i32 %64, 0
  br i1 %65, label %66, label %68

66:                                               ; preds = %47, %37
  %67 = load ptr, ptr %7, align 8, !tbaa !38
  store ptr %67, ptr %11, align 8, !tbaa !38
  br label %72

68:                                               ; preds = %47
  %69 = load ptr, ptr %6, align 8, !tbaa !4
  %70 = getelementptr inbounds nuw %struct._zend_class_entry, ptr %69, i32 0, i32 1
  %71 = load ptr, ptr %70, align 8, !tbaa !37
  store ptr %71, ptr %11, align 8, !tbaa !38
  br label %72

72:                                               ; preds = %68, %66
  %73 = load i8, ptr %10, align 1, !tbaa !78, !range !79, !noundef !80
  %74 = trunc i8 %73 to i1
  br i1 %74, label %75, label %82

75:                                               ; preds = %72
  call void @llvm.lifetime.start.p0(i64 16, ptr %12) #14
  %76 = load ptr, ptr %6, align 8, !tbaa !4
  call void @zend_reflection_class_factory(ptr noundef %76, ptr noundef %12)
  %77 = load ptr, ptr %8, align 8, !tbaa !9
  %78 = getelementptr inbounds nuw %struct._zval_struct, ptr %77, i32 0, i32 0
  %79 = load ptr, ptr %78, align 8, !tbaa !29
  %80 = load ptr, ptr %11, align 8, !tbaa !38
  %81 = call ptr @zend_hash_update(ptr noundef %79, ptr noundef %80, ptr noundef %12)
  call void @llvm.lifetime.end.p0(i64 16, ptr %12) #14
  br label %87

82:                                               ; preds = %72
  %83 = load ptr, ptr %8, align 8, !tbaa !9
  %84 = load ptr, ptr %11, align 8, !tbaa !38
  %85 = call ptr @zend_string_copy(ptr noundef %84)
  %86 = call i32 @add_next_index_str(ptr noundef %83, ptr noundef %85)
  br label %87

87:                                               ; preds = %82, %75
  call void @llvm.lifetime.end.p0(i64 8, ptr %11) #14
  br label %88

88:                                               ; preds = %87, %25, %19, %5
  ret void
}