; Function Attrs: nounwind uwtable
define internal fastcc void @add_extension_class(ptr noundef %0, ptr noundef %1, ptr noundef %2, ptr noundef nonnull readonly captures(none) %3, i1 noundef zeroext %4) unnamed_addr #0 {
  %6 = alloca %struct._zval_struct, align 8
  %7 = load i8, ptr %0, align 8, !tbaa !202
  %8 = icmp eq i8 %7, 1
  br i1 %8, label %9, label %70

9:                                                ; preds = %5
  %10 = getelementptr inbounds nuw i8, ptr %0, i64 512
  %11 = load ptr, ptr %10, align 8, !tbaa !26
  %.not = icmp eq ptr %11, null
  br i1 %.not, label %70, label %12

12:                                               ; preds = %9
  %13 = getelementptr inbounds nuw i8, ptr %11, i64 32
  %14 = load ptr, ptr %13, align 8, !tbaa !86
  %15 = getelementptr inbounds nuw i8, ptr %3, i64 32
  %16 = load ptr, ptr %15, align 8, !tbaa !86
  %17 = tail call i32 @strcasecmp(ptr noundef %14, ptr noundef %16) #16
  %.not20 = icmp eq i32 %17, 0
  br i1 %.not20, label %18, label %70

18:                                               ; preds = %12
  %19 = getelementptr inbounds nuw i8, ptr %0, i64 8
  %20 = load ptr, ptr %19, align 8, !tbaa !36
  %21 = getelementptr inbounds nuw i8, ptr %20, i64 16
  %22 = load i64, ptr %21, align 8, !tbaa !76
  %23 = getelementptr inbounds nuw i8, ptr %1, i64 16
  %24 = load i64, ptr %23, align 8, !tbaa !76
  %25 = icmp eq i64 %22, %24
  br i1 %25, label %26, label %32

26:                                               ; preds = %18
  %27 = getelementptr inbounds nuw i8, ptr %20, i64 24
  %28 = getelementptr inbounds nuw i8, ptr %1, i64 24
  %29 = tail call i32 @zend_binary_strcasecmp(ptr noundef nonnull %27, i64 noundef %22, ptr noundef nonnull %28, i64 noundef %22) #13
  %.not21 = icmp eq i32 %29, 0
  br i1 %.not21, label %30, label %32

30:                                               ; preds = %26
  %31 = load ptr, ptr %19, align 8, !tbaa !36
  br label %32

32:                                               ; preds = %18, %26, %30
  %.0 = phi ptr [ %31, %30 ], [ %1, %26 ], [ %1, %18 ]
  br i1 %4, label %33, label %62

33:                                               ; preds = %32
  call void @llvm.lifetime.start.p0(i64 16, ptr nonnull %6) #13
  %34 = getelementptr inbounds nuw i8, ptr %0, i64 28
  %35 = load i32, ptr %34, align 4, !tbaa !4
  %36 = and i32 %35, 268435456
  %.not.i22 = icmp eq i32 %36, 0
  %37 = load ptr, ptr @reflection_enum_ptr, align 8
  %38 = load ptr, ptr @reflection_class_ptr, align 8
  %39 = select i1 %.not.i22, ptr %38, ptr %37
  %40 = call i32 @object_init_ex(ptr noundef nonnull %6, ptr noundef %39) #13
  %41 = load ptr, ptr %6, align 8, !tbaa !26
  %42 = getelementptr inbounds i8, ptr %41, i64 -24
  store ptr %0, ptr %42, align 8, !tbaa !27
  %43 = getelementptr inbounds i8, ptr %41, i64 -8
  store i32 0, ptr %43, align 8, !tbaa !32
  %44 = getelementptr inbounds i8, ptr %41, i64 -16
  store ptr %0, ptr %44, align 8, !tbaa !33
  %45 = load ptr, ptr %6, align 8, !tbaa !26
  %46 = getelementptr inbounds nuw i8, ptr %45, i64 16
  %47 = load ptr, ptr %46, align 8, !tbaa !34
  %48 = getelementptr inbounds nuw i8, ptr %47, i64 32
  %49 = load i32, ptr %48, align 8, !tbaa !35
  %50 = icmp sgt i32 %49, 0
  call void @llvm.assume(i1 %50)
  %51 = getelementptr inbounds nuw i8, ptr %45, i64 40
  %52 = load ptr, ptr %19, align 8, !tbaa !36
  store ptr %52, ptr %51, align 8, !tbaa !26
  %53 = getelementptr inbounds nuw i8, ptr %52, i64 4
  %54 = load i32, ptr %53, align 4, !tbaa !26
  %55 = and i32 %54, 64
  %.not17.i = icmp eq i32 %55, 0
  br i1 %.not17.i, label %56, label %zend_reflection_class_factory.exit

56:                                               ; preds = %33
  %57 = load i32, ptr %52, align 4, !tbaa !37
  %58 = add i32 %57, 1
  store i32 %58, ptr %52, align 4, !tbaa !37
  br label %zend_reflection_class_factory.exit

zend_reflection_class_factory.exit:               ; preds = %33, %56
  %.sink.i = phi i32 [ 262, %56 ], [ 6, %33 ]
  %59 = getelementptr inbounds nuw i8, ptr %45, i64 48
  store i32 %.sink.i, ptr %59, align 8, !tbaa !26
  %60 = load ptr, ptr %2, align 8, !tbaa !26
  %61 = call ptr @zend_hash_update(ptr noundef %60, ptr noundef %.0, ptr noundef nonnull %6) #13
  call void @llvm.lifetime.end.p0(i64 16, ptr nonnull %6) #13
  br label %70

62:                                               ; preds = %32
  %63 = getelementptr inbounds nuw i8, ptr %.0, i64 4
  %64 = load i32, ptr %63, align 4, !tbaa !26
  %65 = and i32 %64, 64
  %.not.i = icmp eq i32 %65, 0
  br i1 %.not.i, label %66, label %zend_string_copy.exit

66:                                               ; preds = %62
  %67 = load i32, ptr %.0, align 4, !tbaa !37
  %68 = add i32 %67, 1
  store i32 %68, ptr %.0, align 4, !tbaa !37
  br label %zend_string_copy.exit

zend_string_copy.exit:                            ; preds = %62, %66
  %69 = tail call i32 @add_next_index_str(ptr noundef %2, ptr noundef nonnull %.0) #13
  br label %70

70:                                               ; preds = %zend_reflection_class_factory.exit, %zend_string_copy.exit, %12, %9, %5
  ret void
}